; ModuleID = '5/653.c'
source_filename = "5/653.c"
target datalayout = "e-m:e-p270:32:32-p271:32:32-p272:64:64-i64:64-f80:128-n8:16:32:64-S128"
target triple = "x86_64-pc-linux-gnu"

@.str = private unnamed_addr constant [5 x i8] c"%lf\0A\00", align 1
@.str.1 = private unnamed_addr constant [6 x i8] c"%s\0A%s\00", align 1
@.str.2 = private unnamed_addr constant [6 x i8] c"error\00", align 1
@.str.3 = private unnamed_addr constant [4 x i8] c"yes\00", align 1
@.str.4 = private unnamed_addr constant [3 x i8] c"no\00", align 1

; Function Attrs: noinline nounwind uwtable
define dso_local i32 @main() #0 {
  %1 = alloca i32, align 4
  %2 = alloca double, align 8
  %3 = alloca [600 x i8], align 16
  %4 = alloca [600 x i8], align 16
  %5 = alloca i32, align 4
  %6 = alloca i32, align 4
  %7 = alloca i32, align 4
  %8 = alloca i32, align 4
  %9 = alloca i32, align 4
  %10 = alloca i32, align 4
  %11 = alloca i32, align 4
  %12 = alloca double, align 8
  %13 = alloca i32, align 4
  store i32 0, i32* %1, align 4
  %14 = call i32 (i8*, ...) @__isoc99_scanf(i8* getelementptr inbounds ([5 x i8], [5 x i8]* @.str, i64 0, i64 0), double* %2)
  %15 = getelementptr inbounds [600 x i8], [600 x i8]* %3, i64 0, i64 0
  %16 = getelementptr inbounds [600 x i8], [600 x i8]* %4, i64 0, i64 0
  %17 = call i32 (i8*, ...) @__isoc99_scanf(i8* getelementptr inbounds ([6 x i8], [6 x i8]* @.str.1, i64 0, i64 0), i8* %15, i8* %16)
  %18 = getelementptr inbounds [600 x i8], [600 x i8]* %3, i64 0, i64 0
  %19 = call i64 @strlen(i8* %18) #3
  %20 = trunc i64 %19 to i32
  store i32 %20, i32* %5, align 4
  %21 = getelementptr inbounds [600 x i8], [600 x i8]* %4, i64 0, i64 0
  %22 = call i64 @strlen(i8* %21) #3
  %23 = trunc i64 %22 to i32
  store i32 %23, i32* %6, align 4
  store i32 0, i32* %9, align 4
  store i32 0, i32* %10, align 4
  store i32 0, i32* %7, align 4
  br label %24

24:                                               ; preds = %58, %0
  %25 = load i32, i32* %7, align 4
  %26 = load i32, i32* %5, align 4
  %27 = icmp slt i32 %25, %26
  br i1 %27, label %28, label %61

28:                                               ; preds = %24
  %29 = load i32, i32* %7, align 4
  %30 = sext i32 %29 to i64
  %31 = getelementptr inbounds [600 x i8], [600 x i8]* %3, i64 0, i64 %30
  %32 = load i8, i8* %31, align 1
  %33 = sext i8 %32 to i32
  %34 = icmp ne i32 %33, 65
  br i1 %34, label %35, label %57

35:                                               ; preds = %28
  %36 = load i32, i32* %7, align 4
  %37 = sext i32 %36 to i64
  %38 = getelementptr inbounds [600 x i8], [600 x i8]* %3, i64 0, i64 %37
  %39 = load i8, i8* %38, align 1
  %40 = sext i8 %39 to i32
  %41 = icmp ne i32 %40, 84
  br i1 %41, label %42, label %57

42:                                               ; preds = %35
  %43 = load i32, i32* %7, align 4
  %44 = sext i32 %43 to i64
  %45 = getelementptr inbounds [600 x i8], [600 x i8]* %3, i64 0, i64 %44
  %46 = load i8, i8* %45, align 1
  %47 = sext i8 %46 to i32
  %48 = icmp ne i32 %47, 67
  br i1 %48, label %49, label %57

49:                                               ; preds = %42
  %50 = load i32, i32* %7, align 4
  %51 = sext i32 %50 to i64
  %52 = getelementptr inbounds [600 x i8], [600 x i8]* %3, i64 0, i64 %51
  %53 = load i8, i8* %52, align 1
  %54 = sext i8 %53 to i32
  %55 = icmp ne i32 %54, 71
  br i1 %55, label %56, label %57

56:                                               ; preds = %49
  store i32 1, i32* %9, align 4
  br label %57

57:                                               ; preds = %56, %49, %42, %35, %28
  br label %58

58:                                               ; preds = %57
  %59 = load i32, i32* %7, align 4
  %60 = add nsw i32 %59, 1
  store i32 %60, i32* %7, align 4
  br label %24

61:                                               ; preds = %24
  store i32 0, i32* %8, align 4
  br label %62

62:                                               ; preds = %96, %61
  %63 = load i32, i32* %8, align 4
  %64 = load i32, i32* %5, align 4
  %65 = icmp slt i32 %63, %64
  br i1 %65, label %66, label %99

66:                                               ; preds = %62
  %67 = load i32, i32* %8, align 4
  %68 = sext i32 %67 to i64
  %69 = getelementptr inbounds [600 x i8], [600 x i8]* %4, i64 0, i64 %68
  %70 = load i8, i8* %69, align 1
  %71 = sext i8 %70 to i32
  %72 = icmp ne i32 %71, 65
  br i1 %72, label %73, label %95

73:                                               ; preds = %66
  %74 = load i32, i32* %8, align 4
  %75 = sext i32 %74 to i64
  %76 = getelementptr inbounds [600 x i8], [600 x i8]* %4, i64 0, i64 %75
  %77 = load i8, i8* %76, align 1
  %78 = sext i8 %77 to i32
  %79 = icmp ne i32 %78, 84
  br i1 %79, label %80, label %95

80:                                               ; preds = %73
  %81 = load i32, i32* %8, align 4
  %82 = sext i32 %81 to i64
  %83 = getelementptr inbounds [600 x i8], [600 x i8]* %4, i64 0, i64 %82
  %84 = load i8, i8* %83, align 1
  %85 = sext i8 %84 to i32
  %86 = icmp ne i32 %85, 67
  br i1 %86, label %87, label %95

87:                                               ; preds = %80
  %88 = load i32, i32* %8, align 4
  %89 = sext i32 %88 to i64
  %90 = getelementptr inbounds [600 x i8], [600 x i8]* %4, i64 0, i64 %89
  %91 = load i8, i8* %90, align 1
  %92 = sext i8 %91 to i32
  %93 = icmp ne i32 %92, 71
  br i1 %93, label %94, label %95

94:                                               ; preds = %87
  store i32 1, i32* %10, align 4
  br label %95

95:                                               ; preds = %94, %87, %80, %73, %66
  br label %96

96:                                               ; preds = %95
  %97 = load i32, i32* %8, align 4
  %98 = add nsw i32 %97, 1
  store i32 %98, i32* %8, align 4
  br label %62

99:                                               ; preds = %62
  store i32 0, i32* %11, align 4
  %100 = load i32, i32* %7, align 4
  %101 = load i32, i32* %8, align 4
  %102 = icmp ne i32 %100, %101
  br i1 %102, label %109, label %103

103:                                              ; preds = %99
  %104 = load i32, i32* %10, align 4
  %105 = icmp eq i32 %104, 1
  br i1 %105, label %109, label %106

106:                                              ; preds = %103
  %107 = load i32, i32* %9, align 4
  %108 = icmp eq i32 %107, 1
  br i1 %108, label %109, label %111

109:                                              ; preds = %106, %103, %99
  %110 = call i32 (i8*, ...) @printf(i8* getelementptr inbounds ([6 x i8], [6 x i8]* @.str.2, i64 0, i64 0))
  store i32 1, i32* %11, align 4
  br label %111

111:                                              ; preds = %109, %106
  store i32 0, i32* %13, align 4
  store i32 0, i32* %8, align 4
  br label %112

112:                                              ; preds = %132, %111
  %113 = load i32, i32* %8, align 4
  %114 = load i32, i32* %5, align 4
  %115 = icmp slt i32 %113, %114
  br i1 %115, label %116, label %135

116:                                              ; preds = %112
  %117 = load i32, i32* %8, align 4
  %118 = sext i32 %117 to i64
  %119 = getelementptr inbounds [600 x i8], [600 x i8]* %3, i64 0, i64 %118
  %120 = load i8, i8* %119, align 1
  %121 = sext i8 %120 to i32
  %122 = load i32, i32* %8, align 4
  %123 = sext i32 %122 to i64
  %124 = getelementptr inbounds [600 x i8], [600 x i8]* %4, i64 0, i64 %123
  %125 = load i8, i8* %124, align 1
  %126 = sext i8 %125 to i32
  %127 = icmp eq i32 %121, %126
  br i1 %127, label %128, label %131

128:                                              ; preds = %116
  %129 = load i32, i32* %13, align 4
  %130 = add nsw i32 %129, 1
  store i32 %130, i32* %13, align 4
  br label %131

131:                                              ; preds = %128, %116
  br label %132

132:                                              ; preds = %131
  %133 = load i32, i32* %8, align 4
  %134 = add nsw i32 %133, 1
  store i32 %134, i32* %8, align 4
  br label %112

135:                                              ; preds = %112
  %136 = load i32, i32* %13, align 4
  %137 = sitofp i32 %136 to double
  %138 = fmul double 1.000000e+00, %137
  %139 = load i32, i32* %5, align 4
  %140 = sitofp i32 %139 to double
  %141 = fdiv double %138, %140
  store double %141, double* %12, align 8
  %142 = load i32, i32* %11, align 4
  %143 = icmp eq i32 %142, 1
  br i1 %143, label %144, label %145

144:                                              ; preds = %135
  br label %154

145:                                              ; preds = %135
  %146 = load double, double* %12, align 8
  %147 = load double, double* %2, align 8
  %148 = fcmp ogt double %146, %147
  br i1 %148, label %149, label %151

149:                                              ; preds = %145
  %150 = call i32 (i8*, ...) @printf(i8* getelementptr inbounds ([4 x i8], [4 x i8]* @.str.3, i64 0, i64 0))
  br label %153

151:                                              ; preds = %145
  %152 = call i32 (i8*, ...) @printf(i8* getelementptr inbounds ([3 x i8], [3 x i8]* @.str.4, i64 0, i64 0))
  br label %153

153:                                              ; preds = %151, %149
  br label %154

154:                                              ; preds = %153, %144
  ret i32 0
}

declare dso_local i32 @__isoc99_scanf(i8*, ...) #1

; Function Attrs: nounwind readonly
declare dso_local i64 @strlen(i8*) #2

declare dso_local i32 @printf(i8*, ...) #1


!llvm.module.flags = !{!0}
!llvm.ident = !{!1}

!0 = !{i32 1, !"wchar_size", i32 4}
!1 = !{!"clang version 10.0.0-4ubuntu1 "}
